; Function Attrs: nounwind uwtable
define internal ptr @pyobject_getitemdata(ptr readnone captures(none) %0, ptr noundef %1) #0 {
  %3 = tail call ptr @PyObject_GetItemData(ptr noundef %1) #8
  %4 = icmp eq ptr %3, null
  br i1 %4, label %7, label %5

5:                                                ; preds = %2
  %6 = tail call ptr @PyLong_FromVoidPtr(ptr noundef nonnull %3) #8
  br label %7

7:                                                ; preds = %2, %5
  %.0 = phi ptr [ %6, %5 ], [ null, %2 ]
  ret ptr %.0
}